target datalayout = "e-m:e-p270:32:32-p271:32:32-p272:64:64-i64:64-i128:128-f80:128-n8:16:32:64-S128"
target triple = "x86_64-pc-linux-gnu"

%struct.OSSL_HPKE_SUITE = type { i16, i16, i16 }

@testctx = internal global ptr null, align 8
@.str.31 = private unnamed_addr constant [28 x i8] c"../openssl/test/hpke_test.c\00", align 1
@.str.67 = private unnamed_addr constant [4 x i8] c"pub\00", align 1
@.str.69 = private unnamed_addr constant [75 x i8] c"OSSL_HPKE_keygen(hpke_suite, pub, &publen, &privp, NULL, 0, testctx, NULL)\00", align 1
@.str.70 = private unnamed_addr constant [85 x i8] c"ctx = OSSL_HPKE_CTX_new(hpke_mode, hpke_suite, OSSL_HPKE_ROLE_SENDER, testctx, NULL)\00", align 1
@.str.73 = private unnamed_addr constant [57 x i8] c"OSSL_HPKE_encap(ctx, enc, &enclen, pub, publen, NULL, 0)\00", align 1
@.str.74 = private unnamed_addr constant [66 x i8] c"OSSL_HPKE_seal(ctx, cipher, &cipherlen, NULL, 0, plain, plainlen)\00", align 1
@.str.78 = private unnamed_addr constant [88 x i8] c"rctx = OSSL_HPKE_CTX_new(hpke_mode, hpke_suite, OSSL_HPKE_ROLE_RECEIVER, testctx, NULL)\00", align 1
@.str.79 = private unnamed_addr constant [51 x i8] c"OSSL_HPKE_decap(rctx, enc, enclen, privp, NULL, 0)\00", align 1
@.str.80 = private unnamed_addr constant [67 x i8] c"OSSL_HPKE_open(rctx, clear, &clearlen, NULL, 0, cipher, cipherlen)\00", align 1
@.str.86 = private unnamed_addr constant [86 x i8] c"OSSL_HPKE_keygen(hpke_suite, authpub, &authpublen, &authpriv, NULL, 0, testctx, NULL)\00", align 1
@.str.88 = private unnamed_addr constant [43 x i8] c"OSSL_HPKE_CTX_set1_authpriv(ctx, authpriv)\00", align 1
@__const.test_hpke_compressed.hpke_suite = private unnamed_addr constant %struct.OSSL_HPKE_SUITE { i16 32, i16 1, i16 1 }, align 2
@__const.test_hpke_compressed.plain = private unnamed_addr constant [16 x i8] c"quick brown fox\00", align 16
@.str.235 = private unnamed_addr constant [134 x i8] c"EVP_PKEY_set_utf8_string_param(authpriv, OSSL_PKEY_PARAM_EC_POINT_CONVERSION_FORMAT, OSSL_PKEY_EC_POINT_CONVERSION_FORMAT_COMPRESSED)\00", align 1
@.str.236 = private unnamed_addr constant [13 x i8] c"point-format\00", align 1
@.str.237 = private unnamed_addr constant [11 x i8] c"compressed\00", align 1
@.str.238 = private unnamed_addr constant [106 x i8] c"EVP_PKEY_get_octet_string_param(authpriv, OSSL_PKEY_PARAM_PUB_KEY, authpub, sizeof(authpub), &authpublen)\00", align 1
@.str.239 = private unnamed_addr constant [54 x i8] c"OSSL_HPKE_CTX_set1_authpub(rctx, authpub, authpublen)\00", align 1

; Function Attrs: nounwind uwtable
define internal i32 @test_hpke_compressed() #0 {
  %1 = alloca i32, align 4
  %2 = alloca ptr, align 8
  %3 = alloca [512 x i8], align 16
  %4 = alloca i64, align 8
  %5 = alloca ptr, align 8
  %6 = alloca [512 x i8], align 16
  %7 = alloca i64, align 8
  %8 = alloca i32, align 4
  %9 = alloca %struct.OSSL_HPKE_SUITE, align 2
  %10 = alloca ptr, align 8
  %11 = alloca ptr, align 8
  %12 = alloca [16 x i8], align 16
  %13 = alloca i64, align 8
  %14 = alloca [512 x i8], align 16
  %15 = alloca i64, align 8
  %16 = alloca [512 x i8], align 16
  %17 = alloca i64, align 8
  %18 = alloca [512 x i8], align 16
  %19 = alloca i64, align 8
  %20 = alloca i48, align 8
  %21 = alloca i48, align 8
  %22 = alloca i48, align 8
  %23 = alloca i48, align 8
  call void @llvm.lifetime.start.p0(i64 4, ptr %1) #7
  store i32 0, ptr %1, align 4, !tbaa !4
  call void @llvm.lifetime.start.p0(i64 8, ptr %2) #7
  store ptr null, ptr %2, align 8, !tbaa !10
  call void @llvm.lifetime.start.p0(i64 512, ptr %3) #7
  call void @llvm.lifetime.start.p0(i64 8, ptr %4) #7
  store i64 512, ptr %4, align 8, !tbaa !13
  call void @llvm.lifetime.start.p0(i64 8, ptr %5) #7
  store ptr null, ptr %5, align 8, !tbaa !10
  call void @llvm.lifetime.start.p0(i64 512, ptr %6) #7
  call void @llvm.lifetime.start.p0(i64 8, ptr %7) #7
  store i64 512, ptr %7, align 8, !tbaa !13
  call void @llvm.lifetime.start.p0(i64 4, ptr %8) #7
  store i32 2, ptr %8, align 4, !tbaa !4
  call void @llvm.lifetime.start.p0(i64 6, ptr %9) #7
  call void @llvm.memcpy.p0.p0.i64(ptr align 2 %9, ptr align 2 @__const.test_hpke_compressed.hpke_suite, i64 6, i1 false)
  call void @llvm.lifetime.start.p0(i64 8, ptr %10) #7
  store ptr null, ptr %10, align 8, !tbaa !15
  call void @llvm.lifetime.start.p0(i64 8, ptr %11) #7
  store ptr null, ptr %11, align 8, !tbaa !15
  call void @llvm.lifetime.start.p0(i64 16, ptr %12) #7
  call void @llvm.memcpy.p0.p0.i64(ptr align 16 %12, ptr align 16 @__const.test_hpke_compressed.plain, i64 16, i1 false)
  call void @llvm.lifetime.start.p0(i64 8, ptr %13) #7
  store i64 16, ptr %13, align 8, !tbaa !13
  call void @llvm.lifetime.start.p0(i64 512, ptr %14) #7
  call void @llvm.lifetime.start.p0(i64 8, ptr %15) #7
  store i64 512, ptr %15, align 8, !tbaa !13
  call void @llvm.lifetime.start.p0(i64 512, ptr %16) #7
  call void @llvm.lifetime.start.p0(i64 8, ptr %17) #7
  store i64 512, ptr %17, align 8, !tbaa !13
  call void @llvm.lifetime.start.p0(i64 512, ptr %18) #7
  call void @llvm.lifetime.start.p0(i64 8, ptr %19) #7
  store i64 512, ptr %19, align 8, !tbaa !13
  %24 = getelementptr inbounds nuw %struct.OSSL_HPKE_SUITE, ptr %9, i32 0, i32 0
  store i16 16, ptr %24, align 2, !tbaa !24
  %25 = getelementptr inbounds [512 x i8], ptr %6, i64 0, i64 0
  %26 = load ptr, ptr @testctx, align 8, !tbaa !19
  call void @llvm.memcpy.p0.p0.i64(ptr align 8 %20, ptr align 2 %9, i64 6, i1 false)
  %27 = load i48, ptr %20, align 8
  %28 = call i32 @OSSL_HPKE_keygen(i48 %27, ptr noundef %25, ptr noundef %7, ptr noundef %5, ptr noundef null, i64 noundef 0, ptr noundef %26, ptr noundef null)
  %29 = icmp ne i32 %28, 0
  %30 = zext i1 %29 to i32
  %31 = call i32 @test_true(ptr noundef @.str.31, i32 noundef 1820, ptr noundef @.str.86, i32 noundef %30)
  %32 = icmp ne i32 %31, 0
  br i1 %32, label %34, label %33

33:                                               ; preds = %0
  br label %141

34:                                               ; preds = %0
  %35 = load ptr, ptr %5, align 8, !tbaa !10
  %36 = call i32 @EVP_PKEY_set_utf8_string_param(ptr noundef %35, ptr noundef @.str.236, ptr noundef @.str.237)
  %37 = icmp ne i32 %36, 0
  %38 = zext i1 %37 to i32
  %39 = call i32 @test_true(ptr noundef @.str.31, i32 noundef 1825, ptr noundef @.str.235, i32 noundef %38)
  %40 = icmp ne i32 %39, 0
  br i1 %40, label %42, label %41

41:                                               ; preds = %34
  br label %141

42:                                               ; preds = %34
  %43 = load ptr, ptr %5, align 8, !tbaa !10
  %44 = getelementptr inbounds [512 x i8], ptr %6, i64 0, i64 0
  %45 = call i32 @EVP_PKEY_get_octet_string_param(ptr noundef %43, ptr noundef @.str.67, ptr noundef %44, i64 noundef 512, ptr noundef %7)
  %46 = icmp ne i32 %45, 0
  %47 = zext i1 %46 to i32
  %48 = call i32 @test_true(ptr noundef @.str.31, i32 noundef 1831, ptr noundef @.str.238, i32 noundef %47)
  %49 = icmp ne i32 %48, 0
  br i1 %49, label %51, label %50

50:                                               ; preds = %42
  br label %141

51:                                               ; preds = %42
  %52 = getelementptr inbounds [512 x i8], ptr %3, i64 0, i64 0
  %53 = load ptr, ptr @testctx, align 8, !tbaa !19
  call void @llvm.memcpy.p0.p0.i64(ptr align 8 %21, ptr align 2 %9, i64 6, i1 false)
  %54 = load i48, ptr %21, align 8
  %55 = call i32 @OSSL_HPKE_keygen(i48 %54, ptr noundef %52, ptr noundef %4, ptr noundef %2, ptr noundef null, i64 noundef 0, ptr noundef %53, ptr noundef null)
  %56 = icmp ne i32 %55, 0
  %57 = zext i1 %56 to i32
  %58 = call i32 @test_true(ptr noundef @.str.31, i32 noundef 1836, ptr noundef @.str.69, i32 noundef %57)
  %59 = icmp ne i32 %58, 0
  br i1 %59, label %61, label %60

60:                                               ; preds = %51
  br label %141

61:                                               ; preds = %51
  %62 = load i32, ptr %8, align 4, !tbaa !4
  %63 = load ptr, ptr @testctx, align 8, !tbaa !19
  call void @llvm.memcpy.p0.p0.i64(ptr align 8 %22, ptr align 2 %9, i64 6, i1 false)
  %64 = load i48, ptr %22, align 8
  %65 = call ptr @OSSL_HPKE_CTX_new(i32 noundef %62, i48 %64, i32 noundef 0, ptr noundef %63, ptr noundef null)
  store ptr %65, ptr %10, align 8, !tbaa !15
  %66 = call i32 @test_ptr(ptr noundef @.str.31, i32 noundef 1840, ptr noundef @.str.70, ptr noundef %65)
  %67 = icmp ne i32 %66, 0
  br i1 %67, label %69, label %68

68:                                               ; preds = %61
  br label %141

69:                                               ; preds = %61
  %70 = load ptr, ptr %10, align 8, !tbaa !15
  %71 = load ptr, ptr %5, align 8, !tbaa !10
  %72 = call i32 @OSSL_HPKE_CTX_set1_authpriv(ptr noundef %70, ptr noundef %71)
  %73 = icmp ne i32 %72, 0
  %74 = zext i1 %73 to i32
  %75 = call i32 @test_true(ptr noundef @.str.31, i32 noundef 1842, ptr noundef @.str.88, i32 noundef %74)
  %76 = icmp ne i32 %75, 0
  br i1 %76, label %78, label %77

77:                                               ; preds = %69
  br label %141

78:                                               ; preds = %69
  %79 = load ptr, ptr %10, align 8, !tbaa !15
  %80 = getelementptr inbounds [512 x i8], ptr %14, i64 0, i64 0
  %81 = getelementptr inbounds [512 x i8], ptr %3, i64 0, i64 0
  %82 = load i64, ptr %4, align 8, !tbaa !13
  %83 = call i32 @OSSL_HPKE_encap(ptr noundef %79, ptr noundef %80, ptr noundef %15, ptr noundef %81, i64 noundef %82, ptr noundef null, i64 noundef 0)
  %84 = icmp ne i32 %83, 0
  %85 = zext i1 %84 to i32
  %86 = call i32 @test_true(ptr noundef @.str.31, i32 noundef 1844, ptr noundef @.str.73, i32 noundef %85)
  %87 = icmp ne i32 %86, 0
  br i1 %87, label %89, label %88

88:                                               ; preds = %78
  br label %141

89:                                               ; preds = %78
  %90 = load ptr, ptr %10, align 8, !tbaa !15
  %91 = getelementptr inbounds [512 x i8], ptr %16, i64 0, i64 0
  %92 = getelementptr inbounds [16 x i8], ptr %12, i64 0, i64 0
  %93 = load i64, ptr %13, align 8, !tbaa !13
  %94 = call i32 @OSSL_HPKE_seal(ptr noundef %90, ptr noundef %91, ptr noundef %17, ptr noundef null, i64 noundef 0, ptr noundef %92, i64 noundef %93)
  %95 = icmp ne i32 %94, 0
  %96 = zext i1 %95 to i32
  %97 = call i32 @test_true(ptr noundef @.str.31, i32 noundef 1847, ptr noundef @.str.74, i32 noundef %96)
  %98 = icmp ne i32 %97, 0
  br i1 %98, label %100, label %99

99:                                               ; preds = %89
  br label %141

100:                                              ; preds = %89
  %101 = load i32, ptr %8, align 4, !tbaa !4
  %102 = load ptr, ptr @testctx, align 8, !tbaa !19
  call void @llvm.memcpy.p0.p0.i64(ptr align 8 %23, ptr align 2 %9, i64 6, i1 false)
  %103 = load i48, ptr %23, align 8
  %104 = call ptr @OSSL_HPKE_CTX_new(i32 noundef %101, i48 %103, i32 noundef 1, ptr noundef %102, ptr noundef null)
  store ptr %104, ptr %11, align 8, !tbaa !15
  %105 = call i32 @test_ptr(ptr noundef @.str.31, i32 noundef 1853, ptr noundef @.str.78, ptr noundef %104)
  %106 = icmp ne i32 %105, 0
  br i1 %106, label %108, label %107

107:                                              ; preds = %100
  br label %141

108:                                              ; preds = %100
  %109 = load ptr, ptr %11, align 8, !tbaa !15
  %110 = getelementptr inbounds [512 x i8], ptr %6, i64 0, i64 0
  %111 = load i64, ptr %7, align 8, !tbaa !13
  %112 = call i32 @OSSL_HPKE_CTX_set1_authpub(ptr noundef %109, ptr noundef %110, i64 noundef %111)
  %113 = icmp ne i32 %112, 0
  %114 = zext i1 %113 to i32
  %115 = call i32 @test_true(ptr noundef @.str.31, i32 noundef 1855, ptr noundef @.str.239, i32 noundef %114)
  %116 = icmp ne i32 %115, 0
  br i1 %116, label %118, label %117

117:                                              ; preds = %108
  br label %141

118:                                              ; preds = %108
  %119 = load ptr, ptr %11, align 8, !tbaa !15
  %120 = getelementptr inbounds [512 x i8], ptr %14, i64 0, i64 0
  %121 = load i64, ptr %15, align 8, !tbaa !13
  %122 = load ptr, ptr %2, align 8, !tbaa !10
  %123 = call i32 @OSSL_HPKE_decap(ptr noundef %119, ptr noundef %120, i64 noundef %121, ptr noundef %122, ptr noundef null, i64 noundef 0)
  %124 = icmp ne i32 %123, 0
  %125 = zext i1 %124 to i32
  %126 = call i32 @test_true(ptr noundef @.str.31, i32 noundef 1857, ptr noundef @.str.79, i32 noundef %125)
  %127 = icmp ne i32 %126, 0
  br i1 %127, label %129, label %128

128:                                              ; preds = %118
  br label %141

129:                                              ; preds = %118
  %130 = load ptr, ptr %11, align 8, !tbaa !15
  %131 = getelementptr inbounds [512 x i8], ptr %18, i64 0, i64 0
  %132 = getelementptr inbounds [512 x i8], ptr %16, i64 0, i64 0
  %133 = load i64, ptr %17, align 8, !tbaa !13
  %134 = call i32 @OSSL_HPKE_open(ptr noundef %130, ptr noundef %131, ptr noundef %19, ptr noundef null, i64 noundef 0, ptr noundef %132, i64 noundef %133)
  %135 = icmp ne i32 %134, 0
  %136 = zext i1 %135 to i32
  %137 = call i32 @test_true(ptr noundef @.str.31, i32 noundef 1860, ptr noundef @.str.80, i32 noundef %136)
  %138 = icmp ne i32 %137, 0
  br i1 %138, label %140, label %139

139:                                              ; preds = %129
  br label %141

140:                                              ; preds = %129
  store i32 1, ptr %1, align 4, !tbaa !4
  br label %141

141:                                              ; preds = %140, %139, %128, %117, %107, %99, %88, %77, %68, %60, %50, %41, %33
  %142 = load ptr, ptr %2, align 8, !tbaa !10
  call void @EVP_PKEY_free(ptr noundef %142)
  %143 = load ptr, ptr %5, align 8, !tbaa !10
  call void @EVP_PKEY_free(ptr noundef %143)
  %144 = load ptr, ptr %10, align 8, !tbaa !15
  call void @OSSL_HPKE_CTX_free(ptr noundef %144)
  %145 = load ptr, ptr %11, align 8, !tbaa !15
  call void @OSSL_HPKE_CTX_free(ptr noundef %145)
  %146 = load i32, ptr %1, align 4, !tbaa !4
  call void @llvm.lifetime.end.p0(i64 8, ptr %19) #7
  call void @llvm.lifetime.end.p0(i64 512, ptr %18) #7
  call void @llvm.lifetime.end.p0(i64 8, ptr %17) #7
  call void @llvm.lifetime.end.p0(i64 512, ptr %16) #7
  call void @llvm.lifetime.end.p0(i64 8, ptr %15) #7
  call void @llvm.lifetime.end.p0(i64 512, ptr %14) #7
  call void @llvm.lifetime.end.p0(i64 8, ptr %13) #7
  call void @llvm.lifetime.end.p0(i64 16, ptr %12) #7
  call void @llvm.lifetime.end.p0(i64 8, ptr %11) #7
  call void @llvm.lifetime.end.p0(i64 8, ptr %10) #7
  call void @llvm.lifetime.end.p0(i64 6, ptr %9) #7
  call void @llvm.lifetime.end.p0(i64 4, ptr %8) #7
  call void @llvm.lifetime.end.p0(i64 8, ptr %7) #7
  call void @llvm.lifetime.end.p0(i64 512, ptr %6) #7
  call void @llvm.lifetime.end.p0(i64 8, ptr %5) #7
  call void @llvm.lifetime.end.p0(i64 8, ptr %4) #7
  call void @llvm.lifetime.end.p0(i64 512, ptr %3) #7
  call void @llvm.lifetime.end.p0(i64 8, ptr %2) #7
  call void @llvm.lifetime.end.p0(i64 4, ptr %1) #7
  ret i32 %146
}